; Function Attrs: uwtable
define void @_ZTv0_n32_N5arrow2io11StdinStream4ReadElPv(ptr noalias nocapture writeonly sret(%"class.arrow::Result") align 8 %agg.result, ptr nocapture noundef %this, i64 noundef %nbytes, ptr noundef %out) unnamed_addr #9 align 2 {
entry:
  %0 = load ptr, ptr %this, align 8
  %1 = getelementptr inbounds i8, ptr %0, i64 -32
  %2 = load i64, ptr %1, align 8
  %3 = getelementptr inbounds i8, ptr %this, i64 %2
  tail call void @llvm.experimental.noalias.scope.decl(metadata !43)
  %call.i = tail call noundef nonnull align 8 dereferenceable(16) ptr @_ZNSi4readEPcl(ptr noundef nonnull align 8 dereferenceable(16) @_ZSt3cin, ptr noundef %out, i64 noundef %nbytes), !noalias !43
  %call2.i = tail call noundef i64 @_ZNKSi6gcountEv(ptr noundef nonnull align 8 dereferenceable(16) @_ZSt3cin), !noalias !43
  %pos_.i = getelementptr inbounds i8, ptr %3, i64 8
  %4 = load i64, ptr %pos_.i, align 8, !noalias !43
  %add.i = add nsw i64 %4, %call2.i
  store i64 %add.i, ptr %pos_.i, align 8, !noalias !43
  store ptr null, ptr %agg.result, align 8, !alias.scope !43
  %storage_.i.i.i = getelementptr inbounds i8, ptr %agg.result, i64 8
  store i64 %call2.i, ptr %storage_.i.i.i, align 8, !alias.scope !43
  ret void
}